target datalayout = "e-m:e-p270:32:32-p271:32:32-p272:64:64-i64:64-i128:128-f80:128-n8:16:32:64-S128"
target triple = "x86_64-pc-linux-gnu"

@hf_json_3gpp_binary_data = internal global i32 0, align 4
@ett_json_base64decoded_nas5g_ie = internal global i32 0, align 4
@.str.238 = private unnamed_addr constant [9 x i8] c"qosRules\00", align 1
@.str.240 = private unnamed_addr constant [19 x i8] c"qosFlowDescription\00", align 1
@.str.246 = private unnamed_addr constant [15 x i8] c"Base64 decoded\00", align 1

; Function Attrs: null_pointer_is_valid sspstrong uwtable
define internal void @dissect_base64decoded_nas5g_ie(ptr noundef %0, ptr noundef %1, ptr noundef %2, i32 noundef %3, i32 noundef %4, ptr noundef %5) #0 {
  %7 = alloca ptr, align 8
  %8 = alloca ptr, align 8
  %9 = alloca ptr, align 8
  %10 = alloca i32, align 4
  %11 = alloca i32, align 4
  %12 = alloca ptr, align 8
  %13 = alloca ptr, align 8
  %14 = alloca ptr, align 8
  %15 = alloca ptr, align 8
  %16 = alloca i32, align 4
  store ptr %0, ptr %7, align 8
  store ptr %1, ptr %8, align 8
  store ptr %2, ptr %9, align 8
  store i32 %3, ptr %10, align 4
  store i32 %4, ptr %11, align 4
  store ptr %5, ptr %12, align 8
  call void @llvm.lifetime.start.p0(i64 8, ptr %13) #8
  call void @llvm.lifetime.start.p0(i64 8, ptr %14) #8
  call void @llvm.lifetime.start.p0(i64 8, ptr %15) #8
  %17 = load ptr, ptr %7, align 8
  %18 = load i32, ptr %10, align 4
  %19 = load i32, ptr %11, align 4
  %20 = call ptr @base64_tvb_to_new_tvb(ptr noundef %17, i32 noundef %18, i32 noundef %19)
  store ptr %20, ptr %15, align 8
  call void @llvm.lifetime.start.p0(i64 4, ptr %16) #8
  %21 = load ptr, ptr %15, align 8
  %22 = call i32 @tvb_reported_length(ptr noundef %21)
  store i32 %22, ptr %16, align 4
  %23 = load ptr, ptr %9, align 8
  %24 = load ptr, ptr %15, align 8
  call void @add_new_data_source(ptr noundef %23, ptr noundef %24, ptr noundef @.str.246)
  %25 = load ptr, ptr %8, align 8
  %26 = load i32, ptr @hf_json_3gpp_binary_data, align 4
  %27 = load ptr, ptr %15, align 8
  %28 = load i32, ptr %16, align 4
  %29 = call ptr @proto_tree_add_item(ptr noundef %25, i32 noundef %26, ptr noundef %27, i32 noundef 0, i32 noundef %28, i32 noundef 0)
  store ptr %29, ptr %13, align 8
  %30 = load ptr, ptr %13, align 8
  %31 = load i32, ptr @ett_json_base64decoded_nas5g_ie, align 4
  %32 = call ptr @proto_item_add_subtree(ptr noundef %30, i32 noundef %31)
  store ptr %32, ptr %14, align 8
  %33 = load ptr, ptr %12, align 8
  %34 = call i32 @strcmp(ptr noundef %33, ptr noundef @.str.238) #11
  %35 = icmp eq i32 %34, 0
  br i1 %35, label %36, label %42

36:                                               ; preds = %6
  %37 = load ptr, ptr %15, align 8
  %38 = load ptr, ptr %14, align 8
  %39 = load ptr, ptr %9, align 8
  %40 = load i32, ptr %16, align 4
  %41 = call zeroext i16 @de_nas_5gs_sm_qos_rules(ptr noundef %37, ptr noundef %38, ptr noundef %39, i32 noundef 0, i32 noundef %40, ptr noundef null, i32 noundef 0)
  br label %53

42:                                               ; preds = %6
  %43 = load ptr, ptr %12, align 8
  %44 = call i32 @strcmp(ptr noundef %43, ptr noundef @.str.240) #11
  %45 = icmp eq i32 %44, 0
  br i1 %45, label %46, label %52

46:                                               ; preds = %42
  %47 = load ptr, ptr %15, align 8
  %48 = load ptr, ptr %14, align 8
  %49 = load ptr, ptr %9, align 8
  %50 = load i32, ptr %16, align 4
  %51 = call zeroext i16 @elem_telv(ptr noundef %47, ptr noundef %48, ptr noundef %49, i8 noundef zeroext 121, i32 noundef 18, i32 noundef 11, i32 noundef 0, i32 noundef %50, ptr noundef null)
  br label %52

52:                                               ; preds = %46, %42
  br label %53

53:                                               ; preds = %52, %36
  call void @llvm.lifetime.end.p0(i64 4, ptr %16) #8
  call void @llvm.lifetime.end.p0(i64 8, ptr %15) #8
  call void @llvm.lifetime.end.p0(i64 8, ptr %14) #8
  call void @llvm.lifetime.end.p0(i64 8, ptr %13) #8
  ret void
}