; Function Attrs: null_pointer_is_valid sspstrong uwtable
define internal void @dissect_base64decoded_nas5g_ie(ptr noundef %0, ptr noundef %1, ptr noundef %2, i32 noundef %3, i32 noundef %4, ptr noundef readonly captures(none) %5) #0 {
  %7 = tail call ptr @base64_tvb_to_new_tvb(ptr noundef %0, i32 noundef %3, i32 noundef %4)
  %8 = tail call i32 @tvb_reported_length(ptr noundef %7)
  tail call void @add_new_data_source(ptr noundef %2, ptr noundef %7, ptr noundef nonnull @.str.246)
  %9 = load i32, ptr @hf_json_3gpp_binary_data, align 4
  %10 = tail call ptr @proto_tree_add_item(ptr noundef %1, i32 noundef %9, ptr noundef %7, i32 noundef 0, i32 noundef %8, i32 noundef 0)
  %11 = load i32, ptr @ett_json_base64decoded_nas5g_ie, align 4
  %12 = tail call ptr @proto_item_add_subtree(ptr noundef %10, i32 noundef %11)
  %13 = tail call i32 @strcmp(ptr noundef %5, ptr noundef nonnull dereferenceable(9) @.str.238) #6
  %14 = icmp eq i32 %13, 0
  br i1 %14, label %15, label %17

15:                                               ; preds = %6
  %16 = tail call zeroext i16 @de_nas_5gs_sm_qos_rules(ptr noundef %7, ptr noundef %12, ptr noundef %2, i32 noundef 0, i32 noundef %8, ptr noundef null, i32 noundef 0)
  br label %22

17:                                               ; preds = %6
  %18 = tail call i32 @strcmp(ptr noundef %5, ptr noundef nonnull dereferenceable(19) @.str.240) #6
  %19 = icmp eq i32 %18, 0
  br i1 %19, label %20, label %22

20:                                               ; preds = %17
  %21 = tail call zeroext i16 @elem_telv(ptr noundef %7, ptr noundef %12, ptr noundef %2, i8 noundef zeroext 121, i32 noundef 18, i32 noundef 11, i32 noundef 0, i32 noundef %8, ptr noundef null)
  br label %22

22:                                               ; preds = %17, %20, %15
  ret void
}